target datalayout = "e-m:e-p270:32:32-p271:32:32-p272:64:64-i64:64-i128:128-f80:128-n8:16:32:64-S128"
target triple = "x86_64-pc-linux-gnu"

%class.QVariant = type { %"struct.QVariant::Private" }
%"struct.QVariant::Private" = type { %union.anon, i64 }
%union.anon = type { ptr, [16 x i8] }
%class.QModelIndex = type { i32, i32, i64, ptr }

; Function Attrs: inlinehint mustprogress nounwind null_pointer_is_valid sspstrong uwtable
define linkonce_odr void @_ZN11QModelIndexC2Ev(ptr noundef align 8 dereferenceable_or_null(24) %0) unnamed_addr #7 comdat align 2 {
  %2 = alloca ptr, align 8
  store ptr %0, ptr %2, align 8
  %3 = load ptr, ptr %2, align 8
  %4 = getelementptr inbounds nuw %class.QModelIndex, ptr %3, i32 0, i32 0
  store i32 -1, ptr %4, align 8
  %5 = getelementptr inbounds nuw %class.QModelIndex, ptr %3, i32 0, i32 1
  store i32 -1, ptr %5, align 4
  %6 = getelementptr inbounds nuw %class.QModelIndex, ptr %3, i32 0, i32 2
  store i64 0, ptr %6, align 8
  %7 = getelementptr inbounds nuw %class.QModelIndex, ptr %3, i32 0, i32 3
  store ptr null, ptr %7, align 8
  ret void
}

; Function Attrs: mustprogress null_pointer_is_valid sspstrong uwtable
define void @_ZN23InterfaceTreeCacheModel16getColumnContentEiii(ptr dead_on_unwind noalias writable sret(%class.QVariant) align 8 %0, ptr noundef align 8 dereferenceable_or_null(80) %1, i32 noundef %2, i32 noundef %3, i32 noundef %4) #0 align 2 {
  %6 = alloca ptr, align 8
  %7 = alloca ptr, align 8
  %8 = alloca i32, align 4
  %9 = alloca i32, align 4
  %10 = alloca i32, align 4
  %11 = alloca %class.QModelIndex, align 8
  %12 = alloca %class.QModelIndex, align 8
  store ptr %0, ptr %6, align 8
  store ptr %1, ptr %7, align 8
  store i32 %2, ptr %8, align 4
  store i32 %3, ptr %9, align 4
  store i32 %4, ptr %10, align 4
  %13 = load ptr, ptr %7, align 8
  call void @llvm.lifetime.start.p0(i64 24, ptr %11) #22
  %14 = load i32, ptr %8, align 4
  %15 = load i32, ptr %9, align 4
  call void @llvm.lifetime.start.p0(i64 24, ptr %12) #22
  call void @_ZN11QModelIndexC2Ev(ptr noundef align 8 dereferenceable_or_null(24) %12) #22
  %16 = load ptr, ptr %13, align 8
  %17 = getelementptr inbounds ptr, ptr %16, i64 12
  %18 = load ptr, ptr %17, align 8
  call void %18(ptr dead_on_unwind writable sret(%class.QModelIndex) align 8 %11, ptr noundef align 8 dereferenceable_or_null(16) %13, i32 noundef %14, i32 noundef %15, ptr noundef align 8 dereferenceable(24) %12)
  %19 = load i32, ptr %10, align 4
  call void @_ZNK23InterfaceTreeCacheModel4dataERK11QModelIndexi(ptr dead_on_unwind writable sret(%class.QVariant) align 8 %0, ptr noundef align 8 dereferenceable_or_null(80) %13, ptr noundef align 8 dereferenceable(24) %11, i32 noundef %19)
  call void @llvm.lifetime.end.p0(i64 24, ptr %12) #22
  call void @llvm.lifetime.end.p0(i64 24, ptr %11) #22
  ret void
}