; Function Attrs: mustprogress null_pointer_is_valid sspstrong uwtable
define void @_ZN23InterfaceTreeCacheModel16getColumnContentEiii(ptr dead_on_unwind noalias writable sret(%class.QVariant) align 8 %0, ptr noundef align 8 dereferenceable_or_null(80) %1, i32 noundef %2, i32 noundef %3, i32 noundef %4) local_unnamed_addr #0 align 2 {
  %6 = alloca %class.QModelIndex, align 8
  %7 = alloca %class.QModelIndex, align 8
  call void @llvm.lifetime.start.p0(i64 24, ptr nonnull %6) #22
  call void @llvm.lifetime.start.p0(i64 24, ptr nonnull %7) #22
  store i32 -1, ptr %7, align 8
  %8 = getelementptr inbounds nuw i8, ptr %7, i64 4
  store i32 -1, ptr %8, align 4
  %9 = getelementptr inbounds nuw i8, ptr %7, i64 8
  call void @llvm.memset.p0.i64(ptr noundef nonnull align 8 dereferenceable(16) %9, i8 0, i64 16, i1 false)
  %10 = load ptr, ptr %1, align 8
  %11 = getelementptr inbounds nuw i8, ptr %10, i64 96
  %12 = load ptr, ptr %11, align 8
  call void %12(ptr dead_on_unwind nonnull writable sret(%class.QModelIndex) align 8 %6, ptr noundef align 8 dereferenceable_or_null(16) %1, i32 noundef %2, i32 noundef %3, ptr noundef nonnull align 8 dereferenceable(24) %7)
  call void @_ZNK23InterfaceTreeCacheModel4dataERK11QModelIndexi(ptr dead_on_unwind writable sret(%class.QVariant) align 8 %0, ptr noundef align 8 dereferenceable_or_null(80) %1, ptr noundef nonnull align 8 dereferenceable(24) %6, i32 noundef %4)
  call void @llvm.lifetime.end.p0(i64 24, ptr nonnull %7) #22
  call void @llvm.lifetime.end.p0(i64 24, ptr nonnull %6) #22
  ret void
}